target datalayout = "e-m:e-p270:32:32-p271:32:32-p272:64:64-i64:64-i128:128-f80:128-n8:16:32:64-S128"
target triple = "x86_64-pc-linux-gnu"

%struct._spdu_signal_list_uat = type { i32, i32, i32, ptr, ptr, ptr, i8, i32, i32, ptr, ptr, i8, i32, i8, i8, i8, i8 }

@.str.157 = private unnamed_addr constant [6 x i8] c"FALSE\00", align 1
@.str.233 = private unnamed_addr constant [3 x i8] c"%s\00", align 1
@.str.234 = private unnamed_addr constant [5 x i8] c"TRUE\00", align 1

; Function Attrs: null_pointer_is_valid sspstrong uwtable
define internal void @spdu_signal_list_big_endian_tostr_cb(ptr noundef %0, ptr noundef %1, ptr noundef %2, ptr noundef %3, ptr noundef %4) #0 {
  %6 = alloca ptr, align 8
  %7 = alloca ptr, align 8
  %8 = alloca ptr, align 8
  %9 = alloca ptr, align 8
  %10 = alloca ptr, align 8
  store ptr %0, ptr %6, align 8
  store ptr %1, ptr %7, align 8
  store ptr %2, ptr %8, align 8
  store ptr %3, ptr %9, align 8
  store ptr %4, ptr %10, align 8
  %11 = load ptr, ptr %6, align 8
  %12 = getelementptr inbounds nuw %struct._spdu_signal_list_uat, ptr %11, i32 0, i32 6
  %13 = load i8, ptr %12, align 8, !range !6, !noundef !7
  %14 = trunc i8 %13 to i1
  %15 = select i1 %14, ptr @.str.234, ptr @.str.157
  %16 = call noalias ptr (ptr, ptr, ...) @wmem_strdup_printf(ptr noundef null, ptr noundef @.str.233, ptr noundef %15)
  %17 = load ptr, ptr %7, align 8
  store ptr %16, ptr %17, align 8
  %18 = load ptr, ptr %7, align 8
  %19 = load ptr, ptr %18, align 8
  %20 = call i64 @strlen(ptr noundef %19) #15
  %21 = trunc i64 %20 to i32
  %22 = load ptr, ptr %8, align 8
  store i32 %21, ptr %22, align 4
  ret void
}